; Function Attrs: nounwind uwtable
define hidden noundef ptr @_glfwGetVideoModesNull(ptr noundef readnone captures(none) %0, ptr noundef writeonly captures(none) initializes((0, 4)) %1) local_unnamed_addr #0 {
  %3 = tail call ptr @_glfw_calloc(i64 noundef 1, i64 noundef 24) #6
  store i32 1920, ptr %3, align 4, !tbaa !3
  %.sroa.4.0..sroa_idx = getelementptr inbounds nuw i8, ptr %3, i64 4
  store i32 1080, ptr %.sroa.4.0..sroa_idx, align 4, !tbaa !3
  %.sroa.5.0..sroa_idx = getelementptr inbounds nuw i8, ptr %3, i64 8
  store i32 8, ptr %.sroa.5.0..sroa_idx, align 4, !tbaa !3
  %.sroa.6.0..sroa_idx = getelementptr inbounds nuw i8, ptr %3, i64 12
  store i32 8, ptr %.sroa.6.0..sroa_idx, align 4, !tbaa !3
  %.sroa.7.0..sroa_idx = getelementptr inbounds nuw i8, ptr %3, i64 16
  store i32 8, ptr %.sroa.7.0..sroa_idx, align 4, !tbaa !3
  %.sroa.8.0..sroa_idx = getelementptr inbounds nuw i8, ptr %3, i64 20
  store i32 60, ptr %.sroa.8.0..sroa_idx, align 4, !tbaa !3
  store i32 1, ptr %1, align 4, !tbaa !3
  ret ptr %3
}